; Function Attrs: nounwind sspstrong uwtable
define nonnull ptr @ossl_bn_ctx_get() local_unnamed_addr #0 {
  %1 = load ptr, ptr @ossl_bn_ctx_key, align 8, !tbaa !16
  %2 = tail call ptr @rb_ractor_local_storage_ptr(ptr noundef %1) #11
  %.not = icmp eq ptr %2, null
  br i1 %.not, label %3, label %9

3:                                                ; preds = %0
  %4 = tail call ptr @BN_CTX_new() #11
  %.not5 = icmp eq ptr %4, null
  br i1 %.not5, label %5, label %7

5:                                                ; preds = %3
  %6 = load i64, ptr @rb_eRuntimeError, align 8, !tbaa !6
  tail call void (i64, ptr, ...) @ossl_raise(i64 noundef %6, ptr noundef nonnull @.str.2) #12
  unreachable

7:                                                ; preds = %3
  %8 = load ptr, ptr @ossl_bn_ctx_key, align 8, !tbaa !16
  tail call void @rb_ractor_local_storage_ptr_set(ptr noundef %8, ptr noundef nonnull %4) #11
  br label %9

9:                                                ; preds = %7, %0
  %.0 = phi ptr [ %2, %0 ], [ %4, %7 ]
  ret ptr %.0
}